target datalayout = "e-m:e-p270:32:32-p271:32:32-p272:64:64-i64:64-i128:128-f80:128-n8:16:32:64-S128"
target triple = "x86_64-pc-linux-gnu"

%struct.ImVec2 = type { float, float }
%struct.ImRect = type { %struct.ImVec2, %struct.ImVec2 }
%struct.ImGuiTextBuffer = type { %struct.ImVector.34 }
%struct.ImVector.34 = type { i32, i32, ptr }
%struct.ImGuiTabBar = type { ptr, %struct.ImVector.47, i32, i32, i32, i32, i32, i32, i32, %struct.ImRect, float, float, float, float, float, float, float, float, float, float, float, float, i32, i16, i8, i8, i8, i8, i16, i16, float, %struct.ImVec2, %struct.ImVec2, %struct.ImGuiTextBuffer }
%struct.ImVector.47 = type { i32, i32, ptr }
%struct.ImGuiTabItem = type <{ i32, i32, i32, i32, float, float, float, float, i32, i16, i16, i8, [3 x i8] }>

; Function Attrs: inlinehint mustprogress nounwind uwtable
define linkonce_odr noundef nonnull align 4 dereferenceable(41) ptr @_ZN8ImVectorI12ImGuiTabItemEixEi(ptr noundef nonnull align 8 dereferenceable(16) %0, i32 noundef %1) #2 comdat align 2 {
  %3 = alloca ptr, align 8
  %4 = alloca i32, align 4
  store ptr %0, ptr %3, align 8, !tbaa !840
  store i32 %1, ptr %4, align 4, !tbaa !8
  %5 = load ptr, ptr %3, align 8
  %6 = getelementptr inbounds nuw %struct.ImVector.47, ptr %5, i32 0, i32 2
  %7 = load ptr, ptr %6, align 8, !tbaa !844
  %8 = load i32, ptr %4, align 4, !tbaa !8
  %9 = sext i32 %8 to i64
  %10 = getelementptr inbounds %struct.ImGuiTabItem, ptr %7, i64 %9
  ret ptr %10
}

; Function Attrs: mustprogress uwtable
define noundef ptr @_ZN5ImGui19TabBarGetCurrentTabEP11ImGuiTabBar(ptr noundef %0) #9 {
  %2 = alloca ptr, align 8
  %3 = alloca ptr, align 8
  store ptr %0, ptr %3, align 8, !tbaa !833
  %4 = load ptr, ptr %3, align 8, !tbaa !833
  %5 = getelementptr inbounds nuw %struct.ImGuiTabBar, ptr %4, i32 0, i32 29
  %6 = load i16, ptr %5, align 8, !tbaa !839
  %7 = sext i16 %6 to i32
  %8 = icmp slt i32 %7, 0
  br i1 %8, label %19, label %9

9:                                                ; preds = %1
  %10 = load ptr, ptr %3, align 8, !tbaa !833
  %11 = getelementptr inbounds nuw %struct.ImGuiTabBar, ptr %10, i32 0, i32 29
  %12 = load i16, ptr %11, align 8, !tbaa !839
  %13 = sext i16 %12 to i32
  %14 = load ptr, ptr %3, align 8, !tbaa !833
  %15 = getelementptr inbounds nuw %struct.ImGuiTabBar, ptr %14, i32 0, i32 1
  %16 = getelementptr inbounds nuw %struct.ImVector.47, ptr %15, i32 0, i32 0
  %17 = load i32, ptr %16, align 8, !tbaa !863
  %18 = icmp sge i32 %13, %17
  br i1 %18, label %19, label %20

19:                                               ; preds = %9, %1
  store ptr null, ptr %2, align 8
  br label %28

20:                                               ; preds = %9
  %21 = load ptr, ptr %3, align 8, !tbaa !833
  %22 = getelementptr inbounds nuw %struct.ImGuiTabBar, ptr %21, i32 0, i32 1
  %23 = load ptr, ptr %3, align 8, !tbaa !833
  %24 = getelementptr inbounds nuw %struct.ImGuiTabBar, ptr %23, i32 0, i32 29
  %25 = load i16, ptr %24, align 8, !tbaa !839
  %26 = sext i16 %25 to i32
  %27 = call noundef nonnull align 4 dereferenceable(41) ptr @_ZN8ImVectorI12ImGuiTabItemEixEi(ptr noundef nonnull align 8 dereferenceable(16) %22, i32 noundef %26)
  store ptr %27, ptr %2, align 8
  br label %28

28:                                               ; preds = %20, %19
  %29 = load ptr, ptr %2, align 8
  ret ptr %29
}