; Function Attrs: mustprogress nofree norecurse nosync nounwind willreturn memory(argmem: read) uwtable
define noundef ptr @_ZN5ImGui19TabBarGetCurrentTabEP11ImGuiTabBar(ptr noundef readonly captures(none) %0) local_unnamed_addr #12 {
  %2 = getelementptr inbounds nuw i8, ptr %0, i64 128
  %3 = load i16, ptr %2, align 8, !tbaa !737
  %4 = icmp slt i16 %3, 0
  br i1 %4, label %14, label %5

5:                                                ; preds = %1
  %6 = zext nneg i16 %3 to i32
  %7 = getelementptr inbounds nuw i8, ptr %0, i64 8
  %8 = load i32, ptr %7, align 8, !tbaa !760
  %.not = icmp sgt i32 %8, %6
  br i1 %.not, label %9, label %14

9:                                                ; preds = %5
  %10 = getelementptr inbounds nuw i8, ptr %0, i64 16
  %11 = load ptr, ptr %10, align 8, !tbaa !773
  %12 = zext nneg i16 %3 to i64
  %13 = getelementptr inbounds nuw %struct.ImGuiTabItem, ptr %11, i64 %12
  br label %14

14:                                               ; preds = %1, %5, %9
  %.0 = phi ptr [ %13, %9 ], [ null, %5 ], [ null, %1 ]
  ret ptr %.0
}